; ModuleID = 'source-C-CXX/52/1504.c'
source_filename = "source-C-CXX/52/1504.c"
target datalayout = "e-m:e-p270:32:32-p271:32:32-p272:64:64-i64:64-f80:128-n8:16:32:64-S128"
target triple = "x86_64-pc-linux-gnu"

@.str = private unnamed_addr constant [3 x i8] c"%d\00", align 1
@.str.1 = private unnamed_addr constant [4 x i8] c",%d\00", align 1

; Function Attrs: nofree nounwind sspstrong uwtable
define dso_local i32 @main() local_unnamed_addr #0 {
  %1 = alloca [300 x i32], align 16
  %2 = alloca i32, align 4
  %3 = bitcast [300 x i32]* %1 to i8*
  call void @llvm.lifetime.start.p0i8(i64 1200, i8* nonnull %3) #4
  call void @llvm.memset.p0i8.i64(i8* noundef nonnull align 16 dereferenceable(1200) %3, i8 0, i64 1200, i1 false)
  %4 = bitcast i32* %2 to i8*
  call void @llvm.lifetime.start.p0i8(i64 4, i8* nonnull %4) #4
  store i32 0, i32* %2, align 4, !tbaa !5
  %5 = call i32 (i8*, ...) @__isoc99_scanf(i8* getelementptr inbounds ([3 x i8], [3 x i8]* @.str, i64 0, i64 0), i32* nonnull %2)
  %6 = load i32, i32* %2, align 4, !tbaa !5
  %7 = icmp sgt i32 %6, 0
  br i1 %7, label %8, label %51

8:                                                ; preds = %0, %27
  %9 = phi i32 [ %31, %27 ], [ 0, %0 ]
  %10 = phi i32 [ %32, %27 ], [ 0, %0 ]
  %11 = zext i32 %9 to i64
  %12 = getelementptr inbounds [300 x i32], [300 x i32]* %1, i64 0, i64 %11
  %13 = call i32 (i8*, ...) @__isoc99_scanf(i8* getelementptr inbounds ([3 x i8], [3 x i8]* @.str, i64 0, i64 0), i32* nonnull %12)
  %14 = icmp eq i32 %9, 0
  br i1 %14, label %27, label %15

15:                                               ; preds = %8
  %16 = load i32, i32* %12, align 4, !tbaa !5
  br label %17

17:                                               ; preds = %15, %22
  %18 = phi i64 [ 0, %15 ], [ %23, %22 ]
  %19 = getelementptr inbounds [300 x i32], [300 x i32]* %1, i64 0, i64 %18
  %20 = load i32, i32* %19, align 4, !tbaa !5
  %21 = icmp eq i32 %20, %16
  br i1 %21, label %25, label %22

22:                                               ; preds = %17
  %23 = add nuw nsw i64 %18, 1
  %24 = icmp eq i64 %23, %11
  br i1 %24, label %27, label %17, !llvm.loop !9

25:                                               ; preds = %17
  %26 = trunc i64 %18 to i32
  br label %27

27:                                               ; preds = %22, %25, %8
  %28 = phi i32 [ 0, %8 ], [ %26, %25 ], [ %9, %22 ]
  %29 = icmp eq i32 %28, %9
  %30 = zext i1 %29 to i32
  %31 = add nuw nsw i32 %9, %30
  %32 = add nuw nsw i32 %10, 1
  %33 = load i32, i32* %2, align 4, !tbaa !5
  %34 = icmp slt i32 %32, %33
  br i1 %34, label %8, label %35, !llvm.loop !11

35:                                               ; preds = %27
  %36 = icmp eq i32 %31, 0
  br i1 %36, label %51, label %37

37:                                               ; preds = %35
  %38 = getelementptr inbounds [300 x i32], [300 x i32]* %1, i64 0, i64 0
  %39 = load i32, i32* %38, align 16, !tbaa !5
  %40 = call i32 (i8*, ...) @printf(i8* nonnull dereferenceable(1) getelementptr inbounds ([3 x i8], [3 x i8]* @.str, i64 0, i64 0), i32 %39)
  %41 = icmp eq i32 %31, 1
  br i1 %41, label %51, label %42

42:                                               ; preds = %37
  %43 = zext i32 %31 to i64
  br label %44

44:                                               ; preds = %42, %44
  %45 = phi i64 [ 1, %42 ], [ %49, %44 ]
  %46 = getelementptr inbounds [300 x i32], [300 x i32]* %1, i64 0, i64 %45
  %47 = load i32, i32* %46, align 4, !tbaa !5
  %48 = call i32 (i8*, ...) @printf(i8* nonnull dereferenceable(1) getelementptr inbounds ([4 x i8], [4 x i8]* @.str.1, i64 0, i64 0), i32 %47)
  %49 = add nuw nsw i64 %45, 1
  %50 = icmp eq i64 %49, %43
  br i1 %50, label %51, label %44, !llvm.loop !12

51:                                               ; preds = %44, %0, %35, %37
  call void @llvm.lifetime.end.p0i8(i64 4, i8* nonnull %4) #4
  call void @llvm.lifetime.end.p0i8(i64 1200, i8* nonnull %3) #4
  ret i32 0
}

; Function Attrs: argmemonly mustprogress nofree nosync nounwind willreturn
declare void @llvm.lifetime.start.p0i8(i64 immarg, i8* nocapture) #1

; Function Attrs: argmemonly mustprogress nofree nounwind willreturn writeonly
declare void @llvm.memset.p0i8.i64(i8* nocapture writeonly, i8, i64, i1 immarg) #2

; Function Attrs: nofree nounwind
declare noundef i32 @__isoc99_scanf(i8* nocapture noundef readonly, ...) local_unnamed_addr #3

; Function Attrs: nofree nounwind
declare noundef i32 @printf(i8* nocapture noundef readonly, ...) local_unnamed_addr #3

; Function Attrs: argmemonly mustprogress nofree nosync nounwind willreturn
declare void @llvm.lifetime.end.p0i8(i64 immarg, i8* nocapture) #1


!llvm.module.flags = !{!0, !1, !2, !3}
!llvm.ident = !{!4}

!0 = !{i32 1, !"wchar_size", i32 4}
!1 = !{i32 7, !"PIC Level", i32 2}
!2 = !{i32 7, !"PIE Level", i32 2}
!3 = !{i32 7, !"uwtable", i32 1}
!4 = !{!"clang version 13.0.0"}
!5 = !{!6, !6, i64 0}
!6 = !{!"int", !7, i64 0}
!7 = !{!"omnipotent char", !8, i64 0}
!8 = !{!"Simple C/C++ TBAA"}
!9 = distinct !{!9, !10}
!10 = !{!"llvm.loop.mustprogress"}
!11 = distinct !{!11, !10}
!12 = distinct !{!12, !10}
